target datalayout = "e-m:e-p270:32:32-p271:32:32-p272:64:64-i64:64-i128:128-f80:128-n8:16:32:64-S128"
target triple = "x86_64-pc-linux-gnu"

%"class.icu_77::UObject" = type { ptr }
%"class.icu_77::UnicodeString" = type { %"class.icu_77::Replaceable", %"union.icu_77::UnicodeString::StackBufferOrFields" }
%"class.icu_77::Replaceable" = type { %"class.icu_77::UObject" }
%"union.icu_77::UnicodeString::StackBufferOrFields" = type { %struct.anon.0, [32 x i8] }
%struct.anon.0 = type { i16, i32, i32, ptr }
%"class.icu_77::LocalPointerBase" = type { ptr }
%"class.icu_77::LocalPointer" = type { %"class.icu_77::LocalPointerBase" }
%"class.icu_77::ConstChar16Ptr" = type { ptr }

; Function Attrs: mustprogress nounwind uwtable
define linkonce_odr void @_ZN6icu_7716LocalPointerBaseINS_13BreakIteratorEED2Ev(ptr noundef nonnull align 8 dereferenceable(8) %0) unnamed_addr #0 comdat align 2 {
  %2 = alloca ptr, align 8
  store ptr %0, ptr %2, align 8, !tbaa !58
  ret void
}

; Function Attrs: mustprogress nounwind uwtable
define linkonce_odr void @_ZN6icu_7716LocalPointerBaseINS_13BreakIteratorEEC2EPS1_(ptr noundef nonnull align 8 dereferenceable(8) %0, ptr noundef %1) unnamed_addr #0 comdat align 2 {
  %3 = alloca ptr, align 8
  %4 = alloca ptr, align 8
  store ptr %0, ptr %3, align 8, !tbaa !58
  store ptr %1, ptr %4, align 8, !tbaa !8
  %5 = load ptr, ptr %3, align 8
  %6 = getelementptr inbounds nuw %"class.icu_77::LocalPointerBase", ptr %5, i32 0, i32 0
  %7 = load ptr, ptr %4, align 8, !tbaa !8
  store ptr %7, ptr %6, align 8, !tbaa !39
  ret void
}

; Function Attrs: mustprogress nounwind uwtable
define linkonce_odr void @_ZN6icu_7712LocalPointerINS_13BreakIteratorEED2Ev(ptr noundef nonnull align 8 dereferenceable(8) %0) unnamed_addr #0 comdat align 2 {
  %2 = alloca ptr, align 8
  store ptr %0, ptr %2, align 8, !tbaa !35
  %3 = load ptr, ptr %2, align 8
  %4 = getelementptr inbounds nuw %"class.icu_77::LocalPointerBase", ptr %3, i32 0, i32 0
  %5 = load ptr, ptr %4, align 8, !tbaa !39
  %6 = icmp eq ptr %5, null
  br i1 %6, label %11, label %7

7:                                                ; preds = %1
  %8 = load ptr, ptr %5, align 8, !tbaa !37
  %9 = getelementptr inbounds ptr, ptr %8, i64 1
  %10 = load ptr, ptr %9, align 8
  call void %10(ptr noundef nonnull align 8 dereferenceable(32) %5) #8
  br label %11

11:                                               ; preds = %7, %1
  call void @_ZN6icu_7716LocalPointerBaseINS_13BreakIteratorEED2Ev(ptr noundef nonnull align 8 dereferenceable(8) %3) #8
  ret void
}

; Function Attrs: inlinehint mustprogress nounwind uwtable
define linkonce_odr void @_ZN6icu_7714ConstChar16PtrD2Ev(ptr noundef nonnull align 8 dereferenceable(8) %0) unnamed_addr #4 comdat align 2 {
  %2 = alloca ptr, align 8
  store ptr %0, ptr %2, align 8, !tbaa !45
  %3 = load ptr, ptr %2, align 8
  %4 = getelementptr inbounds nuw %"class.icu_77::ConstChar16Ptr", ptr %3, i32 0, i32 0
  %5 = load ptr, ptr %4, align 8, !tbaa !47
  call void asm sideeffect "", "rm,~{memory},~{dirflag},~{fpsr},~{flags}"(ptr %5) #8, !srcloc !49
  ret void
}

; Function Attrs: inlinehint mustprogress nounwind uwtable
define linkonce_odr void @_ZN6icu_7714ConstChar16PtrC2EPKDs(ptr noundef nonnull align 8 dereferenceable(8) %0, ptr noundef %1) unnamed_addr #4 comdat align 2 {
  %3 = alloca ptr, align 8
  %4 = alloca ptr, align 8
  store ptr %0, ptr %3, align 8, !tbaa !45
  store ptr %1, ptr %4, align 8, !tbaa !41
  %5 = load ptr, ptr %3, align 8
  %6 = getelementptr inbounds nuw %"class.icu_77::ConstChar16Ptr", ptr %5, i32 0, i32 0
  %7 = load ptr, ptr %4, align 8, !tbaa !41
  store ptr %7, ptr %6, align 8, !tbaa !47
  ret void
}

; Function Attrs: mustprogress uwtable
define linkonce_odr void @_ZN6icu_7712LocalPointerINS_13BreakIteratorEEC2EPS1_(ptr noundef nonnull align 8 dereferenceable(8) %0, ptr noundef %1) unnamed_addr #3 comdat align 2 {
  %3 = alloca ptr, align 8
  %4 = alloca ptr, align 8
  store ptr %0, ptr %3, align 8, !tbaa !35
  store ptr %1, ptr %4, align 8, !tbaa !8
  %5 = load ptr, ptr %3, align 8
  %6 = load ptr, ptr %4, align 8, !tbaa !8
  call void @_ZN6icu_7716LocalPointerBaseINS_13BreakIteratorEEC2EPS1_(ptr noundef nonnull align 8 dereferenceable(8) %5, ptr noundef %6)
  ret void
}

; Function Attrs: mustprogress uwtable
define noundef i32 @_ZN6icu_777CaseMap7toTitleEPKcjPNS_13BreakIteratorEPKDsiPDsiPNS_5EditsER10UErrorCode(ptr noundef %0, i32 noundef %1, ptr noundef %2, ptr noundef %3, i32 noundef %4, ptr noundef %5, i32 noundef %6, ptr noundef %7, ptr noundef nonnull align 4 dereferenceable(4) %8) #3 align 2 personality ptr @__gxx_personality_v0 {
  %10 = alloca i32, align 4
  %11 = alloca ptr, align 8
  %12 = alloca i32, align 4
  %13 = alloca ptr, align 8
  %14 = alloca ptr, align 8
  %15 = alloca i32, align 4
  %16 = alloca ptr, align 8
  %17 = alloca i32, align 4
  %18 = alloca ptr, align 8
  %19 = alloca ptr, align 8
  %20 = alloca %"class.icu_77::LocalPointer", align 8
  %21 = alloca ptr, align 8
  %22 = alloca i32, align 4
  %23 = alloca i32, align 4
  %24 = alloca %"class.icu_77::UnicodeString", align 8
  %25 = alloca %"class.icu_77::ConstChar16Ptr", align 8
  store ptr %0, ptr %11, align 8, !tbaa !33
  store i32 %1, ptr %12, align 4, !tbaa !28
  store ptr %2, ptr %13, align 8, !tbaa !8
  store ptr %3, ptr %14, align 8, !tbaa !41
  store i32 %4, ptr %15, align 4, !tbaa !28
  store ptr %5, ptr %16, align 8, !tbaa !41
  store i32 %6, ptr %17, align 4, !tbaa !28
  store ptr %7, ptr %18, align 8, !tbaa !43
  store ptr %8, ptr %19, align 8, !tbaa !12
  call void @llvm.lifetime.start.p0(i64 8, ptr %20) #8
  call void @_ZN6icu_7712LocalPointerINS_13BreakIteratorEEC2EPS1_(ptr noundef nonnull align 8 dereferenceable(8) %20, ptr noundef null)
  %26 = load ptr, ptr %11, align 8, !tbaa !33
  %27 = load i32, ptr %12, align 4, !tbaa !28
  %28 = load ptr, ptr %13, align 8, !tbaa !8
  %29 = load ptr, ptr %19, align 8, !tbaa !12
  %30 = invoke ptr @ustrcase_getTitleBreakIterator_77(ptr noundef null, ptr noundef %26, i32 noundef %27, ptr noundef %28, ptr noundef nonnull align 8 dereferenceable(8) %20, ptr noundef nonnull align 4 dereferenceable(4) %29)
          to label %31 unwind label %35

31:                                               ; preds = %9
  store ptr %30, ptr %13, align 8, !tbaa !8
  %32 = load ptr, ptr %13, align 8, !tbaa !8
  %33 = icmp eq ptr %32, null
  br i1 %33, label %34, label %39

34:                                               ; preds = %31
  store i32 0, ptr %10, align 4
  store i32 1, ptr %23, align 4
  br label %78

35:                                               ; preds = %9
  %36 = landingpad { ptr, i32 }
          cleanup
  %37 = extractvalue { ptr, i32 } %36, 0
  store ptr %37, ptr %21, align 8
  %38 = extractvalue { ptr, i32 } %36, 1
  store i32 %38, ptr %22, align 4
  br label %80

39:                                               ; preds = %31
  call void @llvm.lifetime.start.p0(i64 64, ptr %24) #8
  %40 = load i32, ptr %15, align 4, !tbaa !28
  %41 = icmp slt i32 %40, 0
  %42 = zext i1 %41 to i8
  %43 = load ptr, ptr %14, align 8, !tbaa !41
  invoke void @_ZN6icu_7714ConstChar16PtrC2EPKDs(ptr noundef nonnull align 8 dereferenceable(8) %25, ptr noundef %43)
          to label %44 unwind label %65

44:                                               ; preds = %39
  %45 = load i32, ptr %15, align 4, !tbaa !28
  invoke void @_ZN6icu_7713UnicodeStringC1EaNS_14ConstChar16PtrEi(ptr noundef nonnull align 8 dereferenceable(64) %24, i8 noundef signext %42, ptr noundef %25, i32 noundef %45)
          to label %46 unwind label %69

46:                                               ; preds = %44
  call void @_ZN6icu_7714ConstChar16PtrD2Ev(ptr noundef nonnull align 8 dereferenceable(8) %25) #8
  %47 = load ptr, ptr %13, align 8, !tbaa !8
  %48 = load ptr, ptr %47, align 8, !tbaa !37
  %49 = getelementptr inbounds ptr, ptr %48, i64 7
  %50 = load ptr, ptr %49, align 8
  invoke void %50(ptr noundef nonnull align 8 dereferenceable(32) %47, ptr noundef nonnull align 8 dereferenceable(64) %24)
          to label %51 unwind label %73

51:                                               ; preds = %46
  %52 = load ptr, ptr %11, align 8, !tbaa !33
  %53 = invoke i32 @ustrcase_getCaseLocale_77(ptr noundef %52)
          to label %54 unwind label %73

54:                                               ; preds = %51
  %55 = load i32, ptr %12, align 4, !tbaa !28
  %56 = load ptr, ptr %13, align 8, !tbaa !8
  %57 = load ptr, ptr %16, align 8, !tbaa !41
  %58 = load i32, ptr %17, align 4, !tbaa !28
  %59 = load ptr, ptr %14, align 8, !tbaa !41
  %60 = load i32, ptr %15, align 4, !tbaa !28
  %61 = load ptr, ptr %18, align 8, !tbaa !43
  %62 = load ptr, ptr %19, align 8, !tbaa !12
  %63 = invoke i32 @ustrcase_map_77(i32 noundef %53, i32 noundef %55, ptr noundef %56, ptr noundef %57, i32 noundef %58, ptr noundef %59, i32 noundef %60, ptr noundef @ustrcase_internalToTitle_77, ptr noundef %61, ptr noundef nonnull align 4 dereferenceable(4) %62)
          to label %64 unwind label %73

64:                                               ; preds = %54
  store i32 %63, ptr %10, align 4
  store i32 1, ptr %23, align 4
  call void @_ZN6icu_7713UnicodeStringD1Ev(ptr noundef nonnull align 8 dereferenceable(64) %24) #8
  call void @llvm.lifetime.end.p0(i64 64, ptr %24) #8
  br label %78

65:                                               ; preds = %39
  %66 = landingpad { ptr, i32 }
          cleanup
  %67 = extractvalue { ptr, i32 } %66, 0
  store ptr %67, ptr %21, align 8
  %68 = extractvalue { ptr, i32 } %66, 1
  store i32 %68, ptr %22, align 4
  br label %77

69:                                               ; preds = %44
  %70 = landingpad { ptr, i32 }
          cleanup
  %71 = extractvalue { ptr, i32 } %70, 0
  store ptr %71, ptr %21, align 8
  %72 = extractvalue { ptr, i32 } %70, 1
  store i32 %72, ptr %22, align 4
  call void @_ZN6icu_7714ConstChar16PtrD2Ev(ptr noundef nonnull align 8 dereferenceable(8) %25) #8
  br label %77

73:                                               ; preds = %54, %51, %46
  %74 = landingpad { ptr, i32 }
          cleanup
  %75 = extractvalue { ptr, i32 } %74, 0
  store ptr %75, ptr %21, align 8
  %76 = extractvalue { ptr, i32 } %74, 1
  store i32 %76, ptr %22, align 4
  call void @_ZN6icu_7713UnicodeStringD1Ev(ptr noundef nonnull align 8 dereferenceable(64) %24) #8
  br label %77

77:                                               ; preds = %73, %69, %65
  call void @llvm.lifetime.end.p0(i64 64, ptr %24) #8
  br label %80

78:                                               ; preds = %64, %34
  call void @_ZN6icu_7712LocalPointerINS_13BreakIteratorEED2Ev(ptr noundef nonnull align 8 dereferenceable(8) %20) #8
  call void @llvm.lifetime.end.p0(i64 8, ptr %20) #8
  %79 = load i32, ptr %10, align 4
  ret i32 %79

80:                                               ; preds = %77, %35
  call void @_ZN6icu_7712LocalPointerINS_13BreakIteratorEED2Ev(ptr noundef nonnull align 8 dereferenceable(8) %20) #8
  call void @llvm.lifetime.end.p0(i64 8, ptr %20) #8
  br label %81

81:                                               ; preds = %80
  %82 = load ptr, ptr %21, align 8
  %83 = load i32, ptr %22, align 4
  %84 = insertvalue { ptr, i32 } poison, ptr %82, 0
  %85 = insertvalue { ptr, i32 } %84, i32 %83, 1
  resume { ptr, i32 } %85
}