; Function Attrs: mustprogress uwtable
define noundef i32 @_ZN6icu_777CaseMap7toTitleEPKcjPNS_13BreakIteratorEPKDsiPDsiPNS_5EditsER10UErrorCode(ptr noundef %0, i32 noundef %1, ptr noundef %2, ptr noundef %3, i32 noundef %4, ptr noundef %5, i32 noundef %6, ptr noundef %7, ptr noundef nonnull align 4 dereferenceable(4) %8) local_unnamed_addr #6 align 2 personality ptr @__gxx_personality_v0 {
  %10 = alloca %"class.icu_77::LocalPointer", align 8
  %11 = alloca %"class.icu_77::UnicodeString", align 8
  %12 = alloca %"class.icu_77::ConstChar16Ptr", align 8
  call void @llvm.lifetime.start.p0(i64 8, ptr nonnull %10) #10
  store ptr null, ptr %10, align 8, !tbaa !17
  %13 = invoke ptr @ustrcase_getTitleBreakIterator_77(ptr noundef null, ptr noundef %0, i32 noundef %1, ptr noundef %2, ptr noundef nonnull align 8 dereferenceable(8) %10, ptr noundef nonnull align 4 dereferenceable(4) %8)
          to label %14 unwind label %16

14:                                               ; preds = %9
  %15 = icmp eq ptr %13, null
  br i1 %15, label %36, label %18

16:                                               ; preds = %9
  %17 = landingpad { ptr, i32 }
          cleanup
  br label %43

18:                                               ; preds = %14
  call void @llvm.lifetime.start.p0(i64 64, ptr nonnull %11) #10
  %.lobit = lshr i32 %4, 31
  %19 = trunc nuw nsw i32 %.lobit to i8
  store ptr %3, ptr %12, align 8, !tbaa !20
  invoke void @_ZN6icu_7713UnicodeStringC1EaNS_14ConstChar16PtrEi(ptr noundef nonnull align 8 dereferenceable(64) %11, i8 noundef signext %19, ptr noundef nonnull %12, i32 noundef %4)
          to label %20 unwind label %30

20:                                               ; preds = %18
  %21 = load ptr, ptr %12, align 8, !tbaa !20
  call void asm sideeffect "", "rm,~{memory},~{dirflag},~{fpsr},~{flags}"(ptr %21) #10, !srcloc !23
  %22 = load ptr, ptr %13, align 8, !tbaa !15
  %23 = getelementptr inbounds nuw i8, ptr %22, i64 56
  %24 = load ptr, ptr %23, align 8
  invoke void %24(ptr noundef nonnull align 8 dereferenceable(32) %13, ptr noundef nonnull align 8 dereferenceable(64) %11)
          to label %25 unwind label %33

25:                                               ; preds = %20
  %26 = invoke i32 @ustrcase_getCaseLocale_77(ptr noundef %0)
          to label %27 unwind label %33

27:                                               ; preds = %25
  %28 = invoke i32 @ustrcase_map_77(i32 noundef %26, i32 noundef %1, ptr noundef nonnull %13, ptr noundef %5, i32 noundef %6, ptr noundef %3, i32 noundef %4, ptr noundef nonnull @ustrcase_internalToTitle_77, ptr noundef %7, ptr noundef nonnull align 4 dereferenceable(4) %8)
          to label %29 unwind label %33

29:                                               ; preds = %27
  call void @_ZN6icu_7713UnicodeStringD1Ev(ptr noundef nonnull align 8 dereferenceable(64) %11) #10
  call void @llvm.lifetime.end.p0(i64 64, ptr nonnull %11) #10
  br label %36

30:                                               ; preds = %18
  %31 = landingpad { ptr, i32 }
          cleanup
  %32 = load ptr, ptr %12, align 8, !tbaa !20
  call void asm sideeffect "", "rm,~{memory},~{dirflag},~{fpsr},~{flags}"(ptr %32) #10, !srcloc !23
  br label %35

33:                                               ; preds = %27, %25, %20
  %34 = landingpad { ptr, i32 }
          cleanup
  call void @_ZN6icu_7713UnicodeStringD1Ev(ptr noundef nonnull align 8 dereferenceable(64) %11) #10
  br label %35

35:                                               ; preds = %33, %30
  %.pn = phi { ptr, i32 } [ %34, %33 ], [ %31, %30 ]
  call void @llvm.lifetime.end.p0(i64 64, ptr nonnull %11) #10
  br label %43

36:                                               ; preds = %14, %29
  %.022 = phi i32 [ %28, %29 ], [ 0, %14 ]
  %37 = load ptr, ptr %10, align 8, !tbaa !17
  %38 = icmp eq ptr %37, null
  br i1 %38, label %_ZN6icu_7712LocalPointerINS_13BreakIteratorEED2Ev.exit, label %39

39:                                               ; preds = %36
  %40 = load ptr, ptr %37, align 8, !tbaa !15
  %41 = getelementptr inbounds nuw i8, ptr %40, i64 8
  %42 = load ptr, ptr %41, align 8
  call void %42(ptr noundef nonnull align 8 dereferenceable(32) %37) #10
  br label %_ZN6icu_7712LocalPointerINS_13BreakIteratorEED2Ev.exit

_ZN6icu_7712LocalPointerINS_13BreakIteratorEED2Ev.exit: ; preds = %36, %39
  call void @llvm.lifetime.end.p0(i64 8, ptr nonnull %10) #10
  ret i32 %.022

43:                                               ; preds = %35, %16
  %.pn.pn = phi { ptr, i32 } [ %.pn, %35 ], [ %17, %16 ]
  %44 = load ptr, ptr %10, align 8, !tbaa !17
  %45 = icmp eq ptr %44, null
  br i1 %45, label %_ZN6icu_7712LocalPointerINS_13BreakIteratorEED2Ev.exit26, label %46

46:                                               ; preds = %43
  %47 = load ptr, ptr %44, align 8, !tbaa !15
  %48 = getelementptr inbounds nuw i8, ptr %47, i64 8
  %49 = load ptr, ptr %48, align 8
  call void %49(ptr noundef nonnull align 8 dereferenceable(32) %44) #10
  br label %_ZN6icu_7712LocalPointerINS_13BreakIteratorEED2Ev.exit26

_ZN6icu_7712LocalPointerINS_13BreakIteratorEED2Ev.exit26: ; preds = %43, %46
  call void @llvm.lifetime.end.p0(i64 8, ptr nonnull %10) #10
  resume { ptr, i32 } %.pn.pn
}